; Function Attrs: nounwind uwtable
define ptr @l_Lean_CodeAction_initFn____x40_Lean_Server_CodeActions_Attr___hyg_83____lambda__2(ptr noundef %0, ptr noundef %1) #0 {
  %3 = getelementptr inbounds nuw i8, ptr %0, i64 8
  %4 = load ptr, ptr %3, align 8, !tbaa !4
  %5 = ptrtoint ptr %4 to i64
  %6 = and i64 %5, 1
  %.not = icmp eq i64 %6, 0
  br i1 %.not, label %7, label %lean_inc.exit35

7:                                                ; preds = %2
  %.val.i = load i32, ptr %4, align 4, !tbaa !8
  %8 = icmp sgt i32 %.val.i, 0
  br i1 %8, label %9, label %11, !prof !11

9:                                                ; preds = %7
  %10 = add nuw i32 %.val.i, 1
  store i32 %10, ptr %4, align 4, !tbaa !8
  br label %lean_inc.exit35

11:                                               ; preds = %7
  %.not.i38 = icmp eq i32 %.val.i, 0
  br i1 %.not.i38, label %lean_inc.exit35, label %12

12:                                               ; preds = %11
  tail call void @lean_inc_ref_cold(ptr noundef nonnull %4) #5
  br label %lean_inc.exit35

lean_inc.exit35:                                  ; preds = %12, %11, %9, %2
  %13 = getelementptr inbounds nuw i8, ptr %0, i64 16
  %14 = load ptr, ptr %13, align 8, !tbaa !4
  %15 = ptrtoint ptr %14 to i64
  %16 = and i64 %15, 1
  %.not48 = icmp eq i64 %16, 0
  br i1 %.not48, label %17, label %lean_inc.exit34

17:                                               ; preds = %lean_inc.exit35
  %.val.i39 = load i32, ptr %14, align 4, !tbaa !8
  %18 = icmp sgt i32 %.val.i39, 0
  br i1 %18, label %19, label %21, !prof !11

19:                                               ; preds = %17
  %20 = add nuw i32 %.val.i39, 1
  store i32 %20, ptr %14, align 4, !tbaa !8
  br label %lean_inc.exit34

21:                                               ; preds = %17
  %.not.i40 = icmp eq i32 %.val.i39, 0
  br i1 %.not.i40, label %lean_inc.exit34, label %22

22:                                               ; preds = %21
  tail call void @lean_inc_ref_cold(ptr noundef nonnull %14) #5
  br label %lean_inc.exit34

lean_inc.exit34:                                  ; preds = %22, %21, %19, %lean_inc.exit35
  %23 = ptrtoint ptr %0 to i64
  %24 = and i64 %23, 1
  %.not49 = icmp eq i64 %24, 0
  br i1 %.not49, label %25, label %lean_dec.exit32

25:                                               ; preds = %lean_inc.exit34
  %26 = load i32, ptr %0, align 4, !tbaa !8
  %27 = icmp sgt i32 %26, 1
  br i1 %27, label %28, label %30, !prof !11

28:                                               ; preds = %25
  %29 = add nsw i32 %26, -1
  store i32 %29, ptr %0, align 4, !tbaa !8
  br label %lean_dec.exit32

30:                                               ; preds = %25
  %.not.i = icmp eq i32 %26, 0
  br i1 %.not.i, label %lean_dec.exit32, label %31

31:                                               ; preds = %30
  tail call void @lean_dec_ref_cold(ptr noundef nonnull %0) #5
  br label %lean_dec.exit32

lean_dec.exit32:                                  ; preds = %31, %30, %28, %lean_inc.exit34
  %.val = load i32, ptr %1, align 4, !tbaa !8
  %32 = icmp eq i32 %.val, 1
  %33 = getelementptr inbounds nuw i8, ptr %1, i64 8
  %34 = load ptr, ptr %33, align 8, !tbaa !4
  %35 = getelementptr inbounds nuw i8, ptr %1, i64 16
  %36 = load ptr, ptr %35, align 8, !tbaa !4
  br i1 %32, label %37, label %40

37:                                               ; preds = %lean_dec.exit32
  %38 = tail call ptr @lean_array_push(ptr noundef %4, ptr noundef %34) #5
  %39 = tail call ptr @lean_array_push(ptr noundef %14, ptr noundef %36) #5
  store ptr %39, ptr %35, align 8, !tbaa !4
  store ptr %38, ptr %33, align 8, !tbaa !4
  br label %74

40:                                               ; preds = %lean_dec.exit32
  %41 = ptrtoint ptr %36 to i64
  %42 = and i64 %41, 1
  %.not50 = icmp eq i64 %42, 0
  br i1 %.not50, label %43, label %lean_inc.exit33

43:                                               ; preds = %40
  %.val.i42 = load i32, ptr %36, align 4, !tbaa !8
  %44 = icmp sgt i32 %.val.i42, 0
  br i1 %44, label %45, label %47, !prof !11

45:                                               ; preds = %43
  %46 = add nuw i32 %.val.i42, 1
  store i32 %46, ptr %36, align 4, !tbaa !8
  br label %lean_inc.exit33

47:                                               ; preds = %43
  %.not.i43 = icmp eq i32 %.val.i42, 0
  br i1 %.not.i43, label %lean_inc.exit33, label %48

48:                                               ; preds = %47
  tail call void @lean_inc_ref_cold(ptr noundef nonnull %36) #5
  br label %lean_inc.exit33

lean_inc.exit33:                                  ; preds = %48, %47, %45, %40
  %49 = ptrtoint ptr %34 to i64
  %50 = and i64 %49, 1
  %.not51 = icmp eq i64 %50, 0
  br i1 %.not51, label %51, label %lean_inc.exit

51:                                               ; preds = %lean_inc.exit33
  %.val.i45 = load i32, ptr %34, align 4, !tbaa !8
  %52 = icmp sgt i32 %.val.i45, 0
  br i1 %52, label %53, label %55, !prof !11

53:                                               ; preds = %51
  %54 = add nuw i32 %.val.i45, 1
  store i32 %54, ptr %34, align 4, !tbaa !8
  br label %lean_inc.exit

55:                                               ; preds = %51
  %.not.i46 = icmp eq i32 %.val.i45, 0
  br i1 %.not.i46, label %lean_inc.exit, label %56

56:                                               ; preds = %55
  tail call void @lean_inc_ref_cold(ptr noundef nonnull %34) #5
  br label %lean_inc.exit

lean_inc.exit:                                    ; preds = %56, %55, %53, %lean_inc.exit33
  %57 = ptrtoint ptr %1 to i64
  %58 = and i64 %57, 1
  %.not52 = icmp eq i64 %58, 0
  br i1 %.not52, label %59, label %lean_dec.exit

59:                                               ; preds = %lean_inc.exit
  %60 = load i32, ptr %1, align 4, !tbaa !8
  %61 = icmp sgt i32 %60, 1
  br i1 %61, label %62, label %64, !prof !11

62:                                               ; preds = %59
  %63 = add nsw i32 %60, -1
  store i32 %63, ptr %1, align 4, !tbaa !8
  br label %lean_dec.exit

64:                                               ; preds = %59
  %.not.i36 = icmp eq i32 %60, 0
  br i1 %.not.i36, label %lean_dec.exit, label %65

65:                                               ; preds = %64
  tail call void @lean_dec_ref_cold(ptr noundef nonnull %1) #5
  br label %lean_dec.exit

lean_dec.exit:                                    ; preds = %65, %64, %62, %lean_inc.exit
  %66 = tail call ptr @lean_array_push(ptr noundef %4, ptr noundef %34) #5
  %67 = tail call ptr @lean_array_push(ptr noundef %14, ptr noundef %36) #5
  tail call void @lean_inc_heartbeat() #5
  %68 = tail call noalias ptr @mi_malloc_small(i64 noundef 24) #5
  %69 = icmp eq ptr %68, null
  br i1 %69, label %70, label %lean_alloc_ctor.exit

70:                                               ; preds = %lean_dec.exit
  tail call void @lean_internal_panic_out_of_memory() #6
  unreachable

lean_alloc_ctor.exit:                             ; preds = %lean_dec.exit
  %71 = getelementptr inbounds nuw i8, ptr %68, i64 4
  store i32 1, ptr %68, align 4, !tbaa !8
  store i32 131096, ptr %71, align 4
  %72 = getelementptr inbounds nuw i8, ptr %68, i64 8
  store ptr %66, ptr %72, align 8, !tbaa !4
  %73 = getelementptr inbounds nuw i8, ptr %68, i64 16
  store ptr %67, ptr %73, align 8, !tbaa !4
  br label %74

74:                                               ; preds = %lean_alloc_ctor.exit, %37
  %.0 = phi ptr [ %1, %37 ], [ %68, %lean_alloc_ctor.exit ]
  ret ptr %.0
}